target datalayout = "e-m:e-p270:32:32-p271:32:32-p272:64:64-i64:64-i128:128-f80:128-n8:16:32:64-S128"
target triple = "x86_64-pc-linux-gnu"

@.str.62 = private unnamed_addr constant [10 x i8] c"testapp.c\00", align 1
@.str.173 = private unnamed_addr constant [23 x i8] c"kill(pid, SIGHUP) == 0\00", align 1
@__PRETTY_FUNCTION__.test_issue_44 = private unnamed_addr constant [37 x i8] c"enum test_return test_issue_44(void)\00", align 1
@.str.174 = private unnamed_addr constant [24 x i8] c"kill(pid, SIGTERM) == 0\00", align 1

; Function Attrs: nounwind uwtable
define internal i32 @test_issue_44() #0 {
  %1 = alloca i16, align 2
  %2 = alloca i32, align 4
  call void @llvm.lifetime.start.p0(i64 2, ptr %1) #12
  call void @llvm.lifetime.start.p0(i64 4, ptr %2) #12
  %3 = call i32 @start_server(ptr noundef %1, i1 noundef zeroext true, i32 noundef 600)
  store i32 %3, ptr %2, align 4, !tbaa !10
  %4 = load i32, ptr %2, align 4, !tbaa !10
  %5 = call i32 @kill(i32 noundef %4, i32 noundef 1) #12
  %6 = icmp eq i32 %5, 0
  br i1 %6, label %7, label %8

7:                                                ; preds = %0
  br label %9

8:                                                ; preds = %0
  call void @__assert_fail(ptr noundef @.str.173, ptr noundef @.str.62, i32 noundef 638, ptr noundef @__PRETTY_FUNCTION__.test_issue_44) #13
  unreachable

9:                                                ; preds = %7
  %10 = call i32 @sleep(i32 noundef 1)
  %11 = load i32, ptr %2, align 4, !tbaa !10
  %12 = call i32 @kill(i32 noundef %11, i32 noundef 15) #12
  %13 = icmp eq i32 %12, 0
  br i1 %13, label %14, label %15

14:                                               ; preds = %9
  br label %16

15:                                               ; preds = %9
  call void @__assert_fail(ptr noundef @.str.174, ptr noundef @.str.62, i32 noundef 640, ptr noundef @__PRETTY_FUNCTION__.test_issue_44) #13
  unreachable

16:                                               ; preds = %14
  call void @llvm.lifetime.end.p0(i64 4, ptr %2) #12
  call void @llvm.lifetime.end.p0(i64 2, ptr %1) #12
  ret i32 1
}