; Function Attrs: nounwind uwtable
define internal noundef i32 @test_issue_44() #0 {
  %1 = alloca i16, align 2
  call void @llvm.lifetime.start.p0(i64 2, ptr nonnull %1) #21
  %2 = call fastcc i32 @start_server(ptr noundef nonnull %1, i1 noundef zeroext true, i32 noundef 600)
  %3 = tail call i32 @kill(i32 noundef %2, i32 noundef 1) #21
  %4 = icmp eq i32 %3, 0
  br i1 %4, label %6, label %5

5:                                                ; preds = %0
  tail call void @__assert_fail(ptr noundef nonnull @.str.173, ptr noundef nonnull @.str.62, i32 noundef 638, ptr noundef nonnull @__PRETTY_FUNCTION__.test_issue_44) #22
  unreachable

6:                                                ; preds = %0
  %7 = tail call i32 @sleep(i32 noundef 1) #21
  %8 = tail call i32 @kill(i32 noundef %2, i32 noundef 15) #21
  %9 = icmp eq i32 %8, 0
  br i1 %9, label %11, label %10

10:                                               ; preds = %6
  tail call void @__assert_fail(ptr noundef nonnull @.str.174, ptr noundef nonnull @.str.62, i32 noundef 640, ptr noundef nonnull @__PRETTY_FUNCTION__.test_issue_44) #22
  unreachable

11:                                               ; preds = %6
  call void @llvm.lifetime.end.p0(i64 2, ptr nonnull %1) #21
  ret i32 1
}